(lp0
(i__main__
Admin
p1
(dp2
S'password'
p3
S'q'
p4
sS'Id'
p5
I1
sS'name'
p6
S'prakash'
p7
sba(i__main__
Admin
p8
(dp9
g3
S'q'
p10
sg5
I1
sg6
S'prakash'
p11
sba(i__main__
Admin
p12
(dp13
g3
S'q'
p14
sg5
I1
sg6
S'prakash'
p15
sba.